; Function Attrs: nounwind sspstrong uwtable
define dso_local void @ide_transfer_stop(ptr noundef captures(none) initializes((864, 888)) %s) #0 {
entry:
  %end_transfer_func.i = getelementptr inbounds nuw i8, ptr %s, i64 864
  store ptr @ide_transfer_stop, ptr %end_transfer_func.i, align 8
  %io_buffer.i = getelementptr inbounds nuw i8, ptr %s, i64 888
  %0 = load ptr, ptr %io_buffer.i, align 8
  %data_ptr.i = getelementptr inbounds nuw i8, ptr %s, i64 872
  store ptr %0, ptr %data_ptr.i, align 8
  %data_end.i = getelementptr inbounds nuw i8, ptr %s, i64 880
  store ptr %0, ptr %data_end.i, align 8
  %status.i = getelementptr inbounds nuw i8, ptr %s, i64 665
  %1 = load i8, ptr %status.i, align 1
  %2 = and i8 %1, -9
  store i8 %2, ptr %status.i, align 1
  %s.val = load ptr, ptr %s, align 8
  %3 = getelementptr i8, ptr %s.val, i64 2120
  %s.val.val = load ptr, ptr %3, align 8
  %4 = load ptr, ptr %s.val.val, align 8
  %cmd_done.i = getelementptr inbounds nuw i8, ptr %4, i64 64
  %5 = load ptr, ptr %cmd_done.i, align 8
  %tobool.not.i = icmp eq ptr %5, null
  br i1 %tobool.not.i, label %ide_cmd_done.exit, label %if.then.i

if.then.i:                                        ; preds = %entry
  tail call void %5(ptr noundef nonnull %s.val.val) #17
  br label %ide_cmd_done.exit

ide_cmd_done.exit:                                ; preds = %entry, %if.then.i
  ret void
}